; Function Attrs: mustprogress nofree norecurse nosync nounwind willreturn memory(argmem: read) uwtable
define noundef range(i32 0, -2147483648) i32 @_ZNK9grpc_core6chttp217StreamFlowControl19DesiredAnnounceSizeEv(ptr noundef nonnull readonly align 8 captures(none) dereferenceable(48) %0) local_unnamed_addr #8 align 2 {
  %2 = getelementptr inbounds nuw i8, ptr %0, i64 8
  %3 = load i64, ptr %2, align 8, !tbaa !132
  %4 = icmp eq i64 %3, 0
  br i1 %4, label %5, label %15

5:                                                ; preds = %1
  %6 = getelementptr inbounds nuw i8, ptr %0, i64 40
  %7 = load i8, ptr %6, align 8, !tbaa !75, !range !114, !noundef !112
  %8 = trunc nuw i8 %7 to i1
  br i1 %8, label %9, label %._crit_edge.i

._crit_edge.i:                                    ; preds = %5
  %.phi.trans.insert.i = getelementptr inbounds nuw i8, ptr %0, i64 24
  %.pre.i = load i64, ptr %.phi.trans.insert.i, align 8, !tbaa !133
  br label %"_ZZNK9grpc_core6chttp217StreamFlowControl19DesiredAnnounceSizeEvENK3$_0clEv.exit"

9:                                                ; preds = %5
  %10 = getelementptr inbounds nuw i8, ptr %0, i64 32
  %11 = getelementptr inbounds nuw i8, ptr %0, i64 24
  %12 = load i64, ptr %11, align 8, !tbaa !133
  %13 = load i64, ptr %10, align 8, !tbaa !67
  %14 = sub nsw i64 0, %13
  %spec.select.i = tail call i64 @llvm.smax.i64(i64 %12, i64 %14)
  br label %"_ZZNK9grpc_core6chttp217StreamFlowControl19DesiredAnnounceSizeEvENK3$_0clEv.exit"

15:                                               ; preds = %1
  %16 = tail call i64 @llvm.smin.i64(i64 %3, i64 1048576)
  %.phi.trans.insert = getelementptr inbounds nuw i8, ptr %0, i64 24
  %.pre = load i64, ptr %.phi.trans.insert, align 8, !tbaa !133
  br label %"_ZZNK9grpc_core6chttp217StreamFlowControl19DesiredAnnounceSizeEvENK3$_0clEv.exit"

"_ZZNK9grpc_core6chttp217StreamFlowControl19DesiredAnnounceSizeEvENK3$_0clEv.exit": ; preds = %._crit_edge.i, %9, %15
  %17 = phi i64 [ %.pre, %15 ], [ %.pre.i, %._crit_edge.i ], [ %12, %9 ]
  %.0.i = phi i64 [ %16, %15 ], [ %.pre.i, %._crit_edge.i ], [ %spec.select.i, %9 ]
  %18 = sub nsw i64 %.0.i, %17
  %..i = tail call i64 @llvm.smin.i64(i64 %18, i64 2147483647)
  %.0.i1 = tail call i64 @llvm.smax.i64(i64 %..i, i64 0)
  %19 = trunc nuw nsw i64 %.0.i1 to i32
  ret i32 %19
}